; Function Attrs: null_pointer_is_valid sspstrong uwtable
define hidden i32 @mapi_dissect_struct_MAPINAMEID(ptr noundef %0, i32 noundef %1, ptr noundef %2, ptr noundef %3, ptr noundef %4, ptr noundef %5, i32 noundef %6, i32 %7) local_unnamed_addr #0 {
  %9 = alloca ptr, align 8
  %10 = alloca i8, align 1
  %11 = getelementptr inbounds nuw i8, ptr %4, i64 26
  %12 = load i8, ptr %11, align 2, !range !9, !noundef !10
  store i8 1, ptr %11, align 2
  %.not = icmp eq ptr %3, null
  br i1 %.not, label %17, label %13

13:                                               ; preds = %8
  %14 = tail call ptr @proto_tree_add_item(ptr noundef nonnull %3, i32 noundef %6, ptr noundef %0, i32 noundef %1, i32 noundef -1, i32 noundef 0)
  %15 = load i32, ptr @ett_mapi_MAPINAMEID, align 4
  %16 = tail call ptr @proto_item_add_subtree(ptr noundef %14, i32 noundef %15)
  br label %17

17:                                               ; preds = %13, %8
  %.032 = phi ptr [ %16, %13 ], [ null, %8 ]
  %.0 = phi ptr [ %14, %13 ], [ null, %8 ]
  %18 = load i32, ptr @hf_mapi_MAPINAMEID_ulKind, align 4
  call void @llvm.lifetime.start.p0(i64 1, ptr nonnull %10) #6
  store i8 0, ptr %10, align 1
  %19 = call i32 @dissect_ndr_uint8(ptr noundef %0, i32 noundef %1, ptr noundef %2, ptr noundef %.032, ptr noundef %4, ptr noundef %5, i32 noundef %18, ptr noundef nonnull %10)
  %20 = load i8, ptr %10, align 1
  call void @llvm.lifetime.end.p0(i64 1, ptr nonnull %10) #6
  %21 = load i32, ptr @hf_mapi_MAPINAMEID_lpguid, align 4
  %22 = call i32 @dissect_ndr_uuid_t(ptr noundef %0, i32 noundef %19, ptr noundef %2, ptr noundef %.032, ptr noundef %4, ptr noundef %5, i32 noundef %21, ptr noundef null)
  call void @llvm.lifetime.start.p0(i64 8, ptr nonnull %9) #6
  store ptr null, ptr %9, align 8
  %.not.i.i = icmp eq ptr %.032, null
  br i1 %.not.i.i, label %26, label %23

23:                                               ; preds = %17
  %24 = load i32, ptr @ett_mapi_Kind, align 4
  %25 = call ptr @proto_tree_add_subtree(ptr noundef nonnull %.032, ptr noundef %0, i32 noundef %22, i32 noundef -1, i32 noundef %24, ptr noundef nonnull %9, ptr noundef nonnull @.str.4669)
  br label %26

26:                                               ; preds = %23, %17
  %.021.i.i = phi ptr [ %25, %23 ], [ null, %17 ]
  switch i8 %20, label %mapi_dissect_element_MAPINAMEID_kind.exit [
    i8 0, label %27
    i8 1, label %30
  ]

27:                                               ; preds = %26
  %28 = load i32, ptr @hf_mapi_Kind_lid, align 4
  %29 = call i32 @PIDL_dissect_uint32(ptr noundef %0, i32 noundef %22, ptr noundef %2, ptr noundef %.021.i.i, ptr noundef %4, ptr noundef %5, i32 noundef %28, i32 noundef 0)
  br label %mapi_dissect_element_MAPINAMEID_kind.exit

30:                                               ; preds = %26
  %31 = load i32, ptr @hf_mapi_Kind_lpwstr, align 4
  %32 = call i32 @mapi_dissect_struct_name(ptr noundef %0, i32 noundef %22, ptr noundef %2, ptr noundef %.021.i.i, ptr noundef %4, ptr noundef %5, i32 noundef %31, i32 poison)
  br label %mapi_dissect_element_MAPINAMEID_kind.exit

mapi_dissect_element_MAPINAMEID_kind.exit:        ; preds = %26, %27, %30
  %.0.i.i = phi i32 [ %22, %26 ], [ %32, %30 ], [ %29, %27 ]
  %33 = load ptr, ptr %9, align 8
  %34 = sub i32 %.0.i.i, %22
  call void @proto_item_set_len(ptr noundef %33, i32 noundef %34)
  call void @llvm.lifetime.end.p0(i64 8, ptr nonnull %9) #6
  %35 = sub i32 %.0.i.i, %1
  call void @proto_item_set_len(ptr noundef %.0, i32 noundef %35)
  store i8 %12, ptr %11, align 2
  ret i32 %.0.i.i
}